target datalayout = "e-m:e-p270:32:32-p271:32:32-p272:64:64-i64:64-i128:128-f80:128-n8:16:32:64-S128"
target triple = "x86_64-unknown-linux-gnu"

@.str.6 = private unnamed_addr constant [108 x i8] c"generated/home/dtcxzyw/WorkSpace/Projects/compilers/llvm-opt-benchmark/bench/z3/z3/src/muz/base/dl_util.cpp\00", align 1
@.str.13 = private unnamed_addr constant [21 x i8] c"NOT IMPLEMENTED YET!\00", align 1

; Function Attrs: mustprogress uwtable
define hidden void @_ZN7datalog14get_file_namesENSt7__cxx1112basic_stringIcSt11char_traitsIcESaIcEEERKS5_bRSt6vectorIS5_SaIS5_EE(ptr noundef %directory, ptr noundef nonnull align 8 dereferenceable(32) %extension, i1 noundef zeroext %traverse_subdirs, ptr noundef nonnull align 1 %res) #4 {
entry:
  %directory.indirect_addr = alloca ptr, align 8
  %extension.addr = alloca ptr, align 8
  %traverse_subdirs.addr = alloca i8, align 1
  %res.addr = alloca ptr, align 8
  store ptr %directory, ptr %directory.indirect_addr, align 8
  store ptr %extension, ptr %extension.addr, align 8
  %frombool = zext i1 %traverse_subdirs to i8
  store i8 %frombool, ptr %traverse_subdirs.addr, align 1
  store ptr %res, ptr %res.addr, align 8
  %call = call noundef i64 @_ZNKSt7__cxx1112basic_stringIcSt11char_traitsIcESaIcEE4sizeEv(ptr noundef nonnull align 8 dereferenceable(32) %directory) #3
  %sub = sub i64 %call, 1
  %call1 = call noundef nonnull align 1 dereferenceable(1) ptr @_ZNSt7__cxx1112basic_stringIcSt11char_traitsIcESaIcEEixEm(ptr noundef nonnull align 8 dereferenceable(32) %directory, i64 noundef %sub)
  %0 = load i8, ptr %call1, align 1
  %conv = sext i8 %0 to i32
  %cmp = icmp ne i32 %conv, 92
  br i1 %cmp, label %land.lhs.true, label %if.end

land.lhs.true:                                    ; preds = %entry
  %call2 = call noundef i64 @_ZNKSt7__cxx1112basic_stringIcSt11char_traitsIcESaIcEE4sizeEv(ptr noundef nonnull align 8 dereferenceable(32) %directory) #3
  %sub3 = sub i64 %call2, 1
  %call4 = call noundef nonnull align 1 dereferenceable(1) ptr @_ZNSt7__cxx1112basic_stringIcSt11char_traitsIcESaIcEEixEm(ptr noundef nonnull align 8 dereferenceable(32) %directory, i64 noundef %sub3)
  %1 = load i8, ptr %call4, align 1
  %conv5 = sext i8 %1 to i32
  %cmp6 = icmp ne i32 %conv5, 47
  br i1 %cmp6, label %if.then, label %if.end

if.then:                                          ; preds = %land.lhs.true
  %call7 = call noundef nonnull align 8 dereferenceable(32) ptr @_ZNSt7__cxx1112basic_stringIcSt11char_traitsIcESaIcEEpLEc(ptr noundef nonnull align 8 dereferenceable(32) %directory, i8 noundef signext 47)
  br label %if.end

if.end:                                           ; preds = %if.then, %land.lhs.true, %entry
  call void @_Z26notify_assertion_violationPKciS0_(ptr noundef @.str.6, i32 noundef 608, ptr noundef @.str.13)
  call void @exit(i32 noundef 107) #14
  unreachable
}