; Function Attrs: mustprogress noreturn uwtable
define hidden void @_ZN7datalog14get_file_namesENSt7__cxx1112basic_stringIcSt11char_traitsIcESaIcEEERKS5_bRSt6vectorIS5_SaIS5_EE(ptr noundef nonnull %directory, ptr nocapture noundef nonnull readnone align 8 dereferenceable(32) %extension, i1 noundef zeroext %traverse_subdirs, ptr nocapture noundef nonnull readnone align 1 %res) local_unnamed_addr #11 {
entry:
  %call = tail call noundef i64 @_ZNKSt7__cxx1112basic_stringIcSt11char_traitsIcESaIcEE4sizeEv(ptr noundef nonnull align 8 dereferenceable(32) %directory) #21
  %sub = add i64 %call, -1
  %call1 = tail call noundef nonnull align 1 dereferenceable(1) ptr @_ZNSt7__cxx1112basic_stringIcSt11char_traitsIcESaIcEEixEm(ptr noundef nonnull align 8 dereferenceable(32) %directory, i64 noundef %sub)
  %0 = load i8, ptr %call1, align 1
  %cmp.not = icmp eq i8 %0, 92
  br i1 %cmp.not, label %if.end, label %land.lhs.true

land.lhs.true:                                    ; preds = %entry
  %call2 = tail call noundef i64 @_ZNKSt7__cxx1112basic_stringIcSt11char_traitsIcESaIcEE4sizeEv(ptr noundef nonnull align 8 dereferenceable(32) %directory) #21
  %sub3 = add i64 %call2, -1
  %call4 = tail call noundef nonnull align 1 dereferenceable(1) ptr @_ZNSt7__cxx1112basic_stringIcSt11char_traitsIcESaIcEEixEm(ptr noundef nonnull align 8 dereferenceable(32) %directory, i64 noundef %sub3)
  %1 = load i8, ptr %call4, align 1
  %cmp6.not = icmp eq i8 %1, 47
  br i1 %cmp6.not, label %if.end, label %if.then

if.then:                                          ; preds = %land.lhs.true
  %call7 = tail call noundef nonnull align 8 dereferenceable(32) ptr @_ZNSt7__cxx1112basic_stringIcSt11char_traitsIcESaIcEEpLEc(ptr noundef nonnull align 8 dereferenceable(32) %directory, i8 noundef signext 47)
  br label %if.end

if.end:                                           ; preds = %if.then, %land.lhs.true, %entry
  tail call void @_Z26notify_assertion_violationPKciS0_(ptr noundef nonnull @.str.6, i32 noundef 608, ptr noundef nonnull @.str.13)
  tail call void @exit(i32 noundef 107) #22
  unreachable
}